; Function Attrs: cold nounwind optsize uwtable
define internal range(i32 -2147483648, 1) i32 @h261_decode_init(ptr noundef initializes((100, 108)) %0) #0 {
  %2 = getelementptr inbounds nuw i8, ptr %0, i64 32
  %3 = load ptr, ptr %2, align 8, !tbaa !4
  %4 = getelementptr inbounds nuw i8, ptr %0, i64 100
  store i32 30000, ptr %4, align 4, !tbaa !27
  %.sroa.2.0..sroa_idx = getelementptr inbounds nuw i8, ptr %0, i64 104
  store i32 1001, ptr %.sroa.2.0..sroa_idx, align 4, !tbaa !27
  %5 = getelementptr inbounds nuw i8, ptr %3, i64 1480
  store i32 2, ptr %5, align 8, !tbaa !28
  %6 = getelementptr inbounds nuw i8, ptr %3, i64 4808
  %7 = getelementptr inbounds nuw i8, ptr %3, i64 480
  store ptr %6, ptr %7, align 8, !tbaa !51
  %8 = tail call i32 @ff_mpv_decode_init(ptr noundef %3, ptr noundef %0) #5
  %9 = icmp slt i32 %8, 0
  br i1 %9, label %15, label %10

10:                                               ; preds = %1
  %11 = getelementptr inbounds nuw i8, ptr %3, i64 496
  store i32 1, ptr %11, align 8, !tbaa !52
  %12 = getelementptr inbounds nuw i8, ptr %3, i64 4104
  store i32 1, ptr %12, align 8, !tbaa !53
  %13 = getelementptr inbounds nuw i8, ptr %0, i64 136
  store i32 0, ptr %13, align 8, !tbaa !54
  %14 = tail call i32 @pthread_once(ptr noundef nonnull @h261_decode_init.init_static_once, ptr noundef nonnull @h261_decode_init_static) #5
  br label %15

15:                                               ; preds = %1, %10
  %.0 = phi i32 [ 0, %10 ], [ %8, %1 ]
  ret i32 %.0
}